; ModuleID = '16/183.c'
source_filename = "16/183.c"
target datalayout = "e-m:e-p270:32:32-p271:32:32-p272:64:64-i64:64-f80:128-n8:16:32:64-S128"
target triple = "x86_64-pc-linux-gnu"

@.str = private unnamed_addr constant [3 x i8] c"%d\00", align 1
@.str.1 = private unnamed_addr constant [6 x i8] c"00001\00", align 1
@.str.2 = private unnamed_addr constant [9 x i8] c"%d%d%d%d\00", align 1
@.str.3 = private unnamed_addr constant [7 x i8] c"%d%d%d\00", align 1
@.str.4 = private unnamed_addr constant [5 x i8] c"%d%d\00", align 1

; Function Attrs: noinline nounwind uwtable
define dso_local i32 @main() #0 {
  %1 = alloca i32, align 4
  %2 = alloca i32, align 4
  store i32 0, i32* %1, align 4
  %3 = call i32 (i8*, ...) @__isoc99_scanf(i8* getelementptr inbounds ([3 x i8], [3 x i8]* @.str, i64 0, i64 0), i32* %2)
  %4 = load i32, i32* %2, align 4
  %5 = icmp sgt i32 %4, 9999
  br i1 %5, label %6, label %8

6:                                                ; preds = %0
  %7 = call i32 (i8*, ...) @printf(i8* getelementptr inbounds ([6 x i8], [6 x i8]* @.str.1, i64 0, i64 0))
  br label %54

8:                                                ; preds = %0
  %9 = load i32, i32* %2, align 4
  %10 = icmp sgt i32 %9, 999
  br i1 %10, label %11, label %26

11:                                               ; preds = %8
  %12 = load i32, i32* %2, align 4
  %13 = srem i32 %12, 1000
  %14 = srem i32 %13, 100
  %15 = srem i32 %14, 10
  %16 = load i32, i32* %2, align 4
  %17 = srem i32 %16, 1000
  %18 = srem i32 %17, 100
  %19 = sdiv i32 %18, 10
  %20 = load i32, i32* %2, align 4
  %21 = srem i32 %20, 1000
  %22 = sdiv i32 %21, 100
  %23 = load i32, i32* %2, align 4
  %24 = sdiv i32 %23, 1000
  %25 = call i32 (i8*, ...) @printf(i8* getelementptr inbounds ([9 x i8], [9 x i8]* @.str.2, i64 0, i64 0), i32 %15, i32 %19, i32 %22, i32 %24)
  br label %53

26:                                               ; preds = %8
  %27 = load i32, i32* %2, align 4
  %28 = icmp sgt i32 %27, 99
  br i1 %28, label %29, label %39

29:                                               ; preds = %26
  %30 = load i32, i32* %2, align 4
  %31 = srem i32 %30, 100
  %32 = srem i32 %31, 10
  %33 = load i32, i32* %2, align 4
  %34 = srem i32 %33, 100
  %35 = sdiv i32 %34, 10
  %36 = load i32, i32* %2, align 4
  %37 = sdiv i32 %36, 100
  %38 = call i32 (i8*, ...) @printf(i8* getelementptr inbounds ([7 x i8], [7 x i8]* @.str.3, i64 0, i64 0), i32 %32, i32 %35, i32 %37)
  br label %52

39:                                               ; preds = %26
  %40 = load i32, i32* %2, align 4
  %41 = icmp sgt i32 %40, 9
  br i1 %41, label %42, label %48

42:                                               ; preds = %39
  %43 = load i32, i32* %2, align 4
  %44 = srem i32 %43, 10
  %45 = load i32, i32* %2, align 4
  %46 = sdiv i32 %45, 10
  %47 = call i32 (i8*, ...) @printf(i8* getelementptr inbounds ([5 x i8], [5 x i8]* @.str.4, i64 0, i64 0), i32 %44, i32 %46)
  br label %51

48:                                               ; preds = %39
  %49 = load i32, i32* %2, align 4
  %50 = call i32 (i8*, ...) @printf(i8* getelementptr inbounds ([3 x i8], [3 x i8]* @.str, i64 0, i64 0), i32 %49)
  br label %51

51:                                               ; preds = %48, %42
  br label %52

52:                                               ; preds = %51, %29
  br label %53

53:                                               ; preds = %52, %11
  br label %54

54:                                               ; preds = %53, %6
  ret i32 0
}

declare dso_local i32 @__isoc99_scanf(i8*, ...) #1

declare dso_local i32 @printf(i8*, ...) #1


!llvm.module.flags = !{!0}
!llvm.ident = !{!1}

!0 = !{i32 1, !"wchar_size", i32 4}
!1 = !{!"clang version 10.0.0-4ubuntu1 "}
